target datalayout = "e-m:e-p270:32:32-p271:32:32-p272:64:64-i64:64-i128:128-f80:128-n8:16:32:64-S128"
target triple = "x86_64-pc-linux-gnu"

%struct.PROV_DH_CTX = type { ptr, ptr, ptr, i8, i32, ptr, ptr, i64, i64, ptr }

@.str = private unnamed_addr constant [56 x i8] c"../openssl/providers/implementations/exchange/dh_exch.c\00", align 1

; Function Attrs: nounwind uwtable
define internal void @dh_freectx(ptr noundef %0) #0 {
  %2 = alloca ptr, align 8
  %3 = alloca ptr, align 8
  store ptr %0, ptr %2, align 8, !tbaa !3
  call void @llvm.lifetime.start.p0(i64 8, ptr %3) #7
  %4 = load ptr, ptr %2, align 8, !tbaa !3
  store ptr %4, ptr %3, align 8, !tbaa !3
  %5 = load ptr, ptr %3, align 8, !tbaa !3
  %6 = getelementptr inbounds nuw %struct.PROV_DH_CTX, ptr %5, i32 0, i32 9
  %7 = load ptr, ptr %6, align 8, !tbaa !24
  call void @CRYPTO_free(ptr noundef %7, ptr noundef @.str, i32 noundef 277)
  %8 = load ptr, ptr %3, align 8, !tbaa !3
  %9 = getelementptr inbounds nuw %struct.PROV_DH_CTX, ptr %8, i32 0, i32 1
  %10 = load ptr, ptr %9, align 8, !tbaa !18
  call void @DH_free(ptr noundef %10)
  %11 = load ptr, ptr %3, align 8, !tbaa !3
  %12 = getelementptr inbounds nuw %struct.PROV_DH_CTX, ptr %11, i32 0, i32 2
  %13 = load ptr, ptr %12, align 8, !tbaa !23
  call void @DH_free(ptr noundef %13)
  %14 = load ptr, ptr %3, align 8, !tbaa !3
  %15 = getelementptr inbounds nuw %struct.PROV_DH_CTX, ptr %14, i32 0, i32 5
  %16 = load ptr, ptr %15, align 8, !tbaa !25
  call void @EVP_MD_free(ptr noundef %16)
  %17 = load ptr, ptr %3, align 8, !tbaa !3
  %18 = getelementptr inbounds nuw %struct.PROV_DH_CTX, ptr %17, i32 0, i32 6
  %19 = load ptr, ptr %18, align 8, !tbaa !26
  %20 = load ptr, ptr %3, align 8, !tbaa !3
  %21 = getelementptr inbounds nuw %struct.PROV_DH_CTX, ptr %20, i32 0, i32 7
  %22 = load i64, ptr %21, align 8, !tbaa !27
  call void @CRYPTO_clear_free(ptr noundef %19, i64 noundef %22, ptr noundef @.str, i32 noundef 281)
  %23 = load ptr, ptr %3, align 8, !tbaa !3
  call void @CRYPTO_free(ptr noundef %23, ptr noundef @.str, i32 noundef 283)
  call void @llvm.lifetime.end.p0(i64 8, ptr %3) #7
  ret void
}