; Function Attrs: nounwind uwtable
define internal void @dh_freectx(ptr noundef %0) #0 {
  %2 = getelementptr inbounds nuw i8, ptr %0, i64 64
  %3 = load ptr, ptr %2, align 8, !tbaa !19
  tail call void @CRYPTO_free(ptr noundef %3, ptr noundef nonnull @.str, i32 noundef 277) #7
  %4 = getelementptr inbounds nuw i8, ptr %0, i64 8
  %5 = load ptr, ptr %4, align 8, !tbaa !15
  tail call void @DH_free(ptr noundef %5) #7
  %6 = getelementptr inbounds nuw i8, ptr %0, i64 16
  %7 = load ptr, ptr %6, align 8, !tbaa !18
  tail call void @DH_free(ptr noundef %7) #7
  %8 = getelementptr inbounds nuw i8, ptr %0, i64 32
  %9 = load ptr, ptr %8, align 8, !tbaa !22
  tail call void @EVP_MD_free(ptr noundef %9) #7
  %10 = getelementptr inbounds nuw i8, ptr %0, i64 40
  %11 = load ptr, ptr %10, align 8, !tbaa !20
  %12 = getelementptr inbounds nuw i8, ptr %0, i64 48
  %13 = load i64, ptr %12, align 8, !tbaa !21
  tail call void @CRYPTO_clear_free(ptr noundef %11, i64 noundef %13, ptr noundef nonnull @.str, i32 noundef 281) #7
  tail call void @CRYPTO_free(ptr noundef %0, ptr noundef nonnull @.str, i32 noundef 283) #7
  ret void
}